target datalayout = "e-m:e-p270:32:32-p271:32:32-p272:64:64-i64:64-i128:128-f80:128-n8:16:32:64-S128"
target triple = "x86_64-pc-linux-gnu"

%struct.CTState = type { ptr, i32, i32, ptr, ptr, ptr, %struct.CCallback, [128 x i16] }
%struct.CCallback = type { [8 x %union.FPRCBArg], [8 x i64], ptr, ptr, ptr, i32, i32, i32 }
%union.FPRCBArg = type { double }
%struct.CType = type { i32, i32, i16, i16, %struct.GCRef }
%struct.GCRef = type { i64 }

; Function Attrs: alwaysinline nounwind uwtable
define internal i32 @ctype_check(ptr noundef %0, i32 noundef %1) #5 {
  %3 = alloca ptr, align 8
  %4 = alloca i32, align 4
  store ptr %0, ptr %3, align 8, !tbaa !4
  store i32 %1, ptr %4, align 4, !tbaa !21
  %5 = load i32, ptr %4, align 4, !tbaa !21
  ret i32 %5
}

; Function Attrs: alwaysinline nounwind uwtable
define internal ptr @ctype_get(ptr noundef %0, i32 noundef %1) #5 {
  %3 = alloca ptr, align 8
  %4 = alloca i32, align 4
  store ptr %0, ptr %3, align 8, !tbaa !4
  store i32 %1, ptr %4, align 4, !tbaa !21
  %5 = load ptr, ptr %3, align 8, !tbaa !4
  %6 = getelementptr inbounds nuw %struct.CTState, ptr %5, i32 0, i32 0
  %7 = load ptr, ptr %6, align 8, !tbaa !24
  %8 = load ptr, ptr %3, align 8, !tbaa !4
  %9 = load i32, ptr %4, align 4, !tbaa !21
  %10 = call i32 @ctype_check(ptr noundef %8, i32 noundef %9)
  %11 = zext i32 %10 to i64
  %12 = getelementptr inbounds nuw %struct.CType, ptr %7, i64 %11
  ret ptr %12
}

; Function Attrs: nounwind uwtable
define hidden i32 @lj_ctype_info(ptr noundef %0, i32 noundef %1, ptr noundef %2) #0 {
  %4 = alloca ptr, align 8
  %5 = alloca i32, align 4
  %6 = alloca ptr, align 8
  %7 = alloca i32, align 4
  %8 = alloca ptr, align 8
  %9 = alloca i32, align 4
  %10 = alloca i32, align 4
  store ptr %0, ptr %4, align 8, !tbaa !4
  store i32 %1, ptr %5, align 4, !tbaa !21
  store ptr %2, ptr %6, align 8, !tbaa !41
  call void @llvm.lifetime.start.p0(i64 4, ptr %7) #8
  store i32 0, ptr %7, align 4, !tbaa !21
  call void @llvm.lifetime.start.p0(i64 8, ptr %8) #8
  %11 = load ptr, ptr %4, align 8, !tbaa !4
  %12 = load i32, ptr %5, align 4, !tbaa !21
  %13 = call ptr @ctype_get(ptr noundef %11, i32 noundef %12)
  store ptr %13, ptr %8, align 8, !tbaa !25
  br label %14

14:                                               ; preds = %87, %3
  call void @llvm.lifetime.start.p0(i64 4, ptr %9) #8
  %15 = load ptr, ptr %8, align 8, !tbaa !25
  %16 = getelementptr inbounds nuw %struct.CType, ptr %15, i32 0, i32 0
  %17 = load i32, ptr %16, align 8, !tbaa !26
  store i32 %17, ptr %9, align 4, !tbaa !21
  %18 = load i32, ptr %9, align 4, !tbaa !21
  %19 = lshr i32 %18, 28
  %20 = icmp eq i32 %19, 5
  br i1 %20, label %21, label %22

21:                                               ; preds = %14
  br label %80

22:                                               ; preds = %14
  %23 = load i32, ptr %9, align 4, !tbaa !21
  %24 = lshr i32 %23, 28
  %25 = icmp eq i32 %24, 8
  br i1 %25, label %26, label %54

26:                                               ; preds = %22
  %27 = load i32, ptr %9, align 4, !tbaa !21
  %28 = and i32 %27, -251723776
  %29 = icmp eq i32 %28, -2147418112
  br i1 %29, label %30, label %36

30:                                               ; preds = %26
  %31 = load ptr, ptr %8, align 8, !tbaa !25
  %32 = getelementptr inbounds nuw %struct.CType, ptr %31, i32 0, i32 1
  %33 = load i32, ptr %32, align 4, !tbaa !31
  %34 = load i32, ptr %7, align 4, !tbaa !21
  %35 = or i32 %34, %33
  store i32 %35, ptr %7, align 4, !tbaa !21
  br label %53

36:                                               ; preds = %26
  %37 = load i32, ptr %9, align 4, !tbaa !21
  %38 = and i32 %37, -251723776
  %39 = icmp eq i32 %38, -2147352576
  br i1 %39, label %40, label %52

40:                                               ; preds = %36
  %41 = load i32, ptr %7, align 4, !tbaa !21
  %42 = and i32 %41, 1
  %43 = icmp ne i32 %42, 0
  br i1 %43, label %52, label %44

44:                                               ; preds = %40
  %45 = load ptr, ptr %8, align 8, !tbaa !25
  %46 = getelementptr inbounds nuw %struct.CType, ptr %45, i32 0, i32 1
  %47 = load i32, ptr %46, align 4, !tbaa !31
  %48 = shl i32 %47, 16
  %49 = add i32 1, %48
  %50 = load i32, ptr %7, align 4, !tbaa !21
  %51 = or i32 %50, %49
  store i32 %51, ptr %7, align 4, !tbaa !21
  br label %52

52:                                               ; preds = %44, %40, %36
  br label %53

53:                                               ; preds = %52, %30
  br label %79

54:                                               ; preds = %22
  %55 = load i32, ptr %7, align 4, !tbaa !21
  %56 = and i32 %55, 1
  %57 = icmp ne i32 %56, 0
  br i1 %57, label %63, label %58

58:                                               ; preds = %54
  %59 = load i32, ptr %9, align 4, !tbaa !21
  %60 = and i32 %59, 983040
  %61 = load i32, ptr %7, align 4, !tbaa !21
  %62 = or i32 %61, %60
  store i32 %62, ptr %7, align 4, !tbaa !21
  br label %63

63:                                               ; preds = %58, %54
  %64 = load i32, ptr %9, align 4, !tbaa !21
  %65 = and i32 %64, -1048576
  %66 = load i32, ptr %7, align 4, !tbaa !21
  %67 = or i32 %66, %65
  store i32 %67, ptr %7, align 4, !tbaa !21
  %68 = load i32, ptr %9, align 4, !tbaa !21
  %69 = lshr i32 %68, 28
  %70 = icmp eq i32 %69, 6
  br i1 %70, label %71, label %72

71:                                               ; preds = %63
  br label %76

72:                                               ; preds = %63
  %73 = load ptr, ptr %8, align 8, !tbaa !25
  %74 = getelementptr inbounds nuw %struct.CType, ptr %73, i32 0, i32 1
  %75 = load i32, ptr %74, align 4, !tbaa !31
  br label %76

76:                                               ; preds = %72, %71
  %77 = phi i32 [ -1, %71 ], [ %75, %72 ]
  %78 = load ptr, ptr %6, align 8, !tbaa !41
  store i32 %77, ptr %78, align 4, !tbaa !21
  store i32 2, ptr %10, align 4
  br label %85

79:                                               ; preds = %53
  br label %80

80:                                               ; preds = %79, %21
  %81 = load ptr, ptr %4, align 8, !tbaa !4
  %82 = load i32, ptr %9, align 4, !tbaa !21
  %83 = and i32 %82, 65535
  %84 = call ptr @ctype_get(ptr noundef %81, i32 noundef %83)
  store ptr %84, ptr %8, align 8, !tbaa !25
  store i32 0, ptr %10, align 4
  br label %85

85:                                               ; preds = %80, %76
  call void @llvm.lifetime.end.p0(i64 4, ptr %9) #8
  %86 = load i32, ptr %10, align 4
  switch i32 %86, label %90 [
    i32 0, label %87
    i32 2, label %88
  ]

87:                                               ; preds = %85
  br label %14

88:                                               ; preds = %85
  %89 = load i32, ptr %7, align 4, !tbaa !21
  store i32 1, ptr %10, align 4
  call void @llvm.lifetime.end.p0(i64 8, ptr %8) #8
  call void @llvm.lifetime.end.p0(i64 4, ptr %7) #8
  ret i32 %89

90:                                               ; preds = %85
  unreachable
}