; Function Attrs: nofree norecurse nosync nounwind memory(read, argmem: readwrite, inaccessiblemem: none) uwtable
define hidden i32 @lj_ctype_info(ptr noundef readonly captures(none) %0, i32 noundef %1, ptr noundef writeonly captures(none) %2) local_unnamed_addr #5 {
  %4 = load ptr, ptr %0, align 8, !tbaa !19
  br label %5

5:                                                ; preds = %25, %3
  %.pn.in = phi i32 [ %1, %3 ], [ %26, %25 ]
  %.023 = phi i32 [ 0, %3 ], [ %.1, %25 ]
  %.pn = zext i32 %.pn.in to i64
  %.024 = getelementptr inbounds nuw %struct.CType, ptr %4, i64 %.pn
  %6 = load i32, ptr %.024, align 8, !tbaa !28
  %7 = lshr i32 %6, 28
  switch i32 %7, label %22 [
    i32 5, label %25
    i32 8, label %8
    i32 6, label %.loopexit
  ]

8:                                                ; preds = %5
  %9 = and i32 %6, -2130771968
  switch i32 %9, label %25 [
    i32 -2147418112, label %10
    i32 -2147352576, label %14
  ]

10:                                               ; preds = %8
  %11 = getelementptr inbounds nuw i8, ptr %.024, i64 4
  %12 = load i32, ptr %11, align 4, !tbaa !29
  %13 = or i32 %12, %.023
  br label %25

14:                                               ; preds = %8
  %15 = and i32 %.023, 1
  %.not28 = icmp eq i32 %15, 0
  br i1 %.not28, label %16, label %25

16:                                               ; preds = %14
  %17 = getelementptr inbounds nuw i8, ptr %.024, i64 4
  %18 = load i32, ptr %17, align 4, !tbaa !29
  %19 = shl i32 %18, 16
  %20 = or i32 %19, %.023
  %21 = or disjoint i32 %20, 1
  br label %25

22:                                               ; preds = %5
  %23 = getelementptr inbounds nuw i8, ptr %.024, i64 4
  %24 = load i32, ptr %23, align 4, !tbaa !29
  br label %.loopexit

25:                                               ; preds = %5, %10, %16, %14, %8
  %.1 = phi i32 [ %.023, %5 ], [ %13, %10 ], [ %.023, %14 ], [ %21, %16 ], [ %.023, %8 ]
  %26 = and i32 %6, 65535
  br label %5

.loopexit:                                        ; preds = %5, %22
  %27 = phi i32 [ %24, %22 ], [ -1, %5 ]
  %28 = and i32 %6, -1048576
  %29 = and i32 %.023, 1
  %.not = icmp eq i32 %29, 0
  %30 = and i32 %6, 983040
  %31 = select i1 %.not, i32 %30, i32 0
  %32 = or disjoint i32 %28, %31
  %33 = or i32 %32, %.023
  store i32 %27, ptr %2, align 4, !tbaa !36
  ret i32 %33
}